; Function Attrs: nounwind sspstrong uwtable
define internal i64 @ossl_x509ext_get_value(i64 noundef %0) #0 {
  %2 = tail call ptr @rb_check_typeddata(i64 noundef %0, ptr noundef nonnull @ossl_x509ext_type) #5
  %.not = icmp eq ptr %2, null
  br i1 %.not, label %3, label %5

3:                                                ; preds = %1
  %4 = load i64, ptr @rb_eRuntimeError, align 8, !tbaa !6
  tail call void (i64, ptr, ...) @ossl_raise(i64 noundef %4, ptr noundef nonnull @.str) #6
  unreachable

5:                                                ; preds = %1
  %6 = tail call ptr @BIO_s_mem() #5
  %7 = tail call ptr @BIO_new(ptr noundef %6) #5
  %.not8 = icmp eq ptr %7, null
  br i1 %.not8, label %8, label %10

8:                                                ; preds = %5
  %9 = load i64, ptr @eX509ExtError, align 8, !tbaa !6
  tail call void (i64, ptr, ...) @ossl_raise(i64 noundef %9, ptr noundef null) #6
  unreachable

10:                                               ; preds = %5
  %11 = tail call i32 @X509V3_EXT_print(ptr noundef nonnull %7, ptr noundef nonnull %2, i64 noundef 0, i32 noundef 0) #5
  %.not9 = icmp eq i32 %11, 0
  br i1 %.not9, label %12, label %15

12:                                               ; preds = %10
  %13 = tail call ptr @X509_EXTENSION_get_data(ptr noundef nonnull %2) #5
  %14 = tail call i32 @ASN1_STRING_print(ptr noundef nonnull %7, ptr noundef %13) #5
  br label %15

15:                                               ; preds = %12, %10
  %16 = tail call i64 @ossl_membio2str(ptr noundef nonnull %7) #5
  ret i64 %16
}